; ModuleID = 'source-C-CXX/30/79.c'
source_filename = "source-C-CXX/30/79.c"
target datalayout = "e-m:e-p270:32:32-p271:32:32-p272:64:64-i64:64-f80:128-n8:16:32:64-S128"
target triple = "x86_64-pc-linux-gnu"

%struct.YyxStack = type { i32, %struct.YyxNode* }
%struct.YyxNode = type { %struct.record, %struct.YyxNode* }
%struct.record = type { [100 x i8] }

@.str.2 = private unnamed_addr constant [4 x i8] c"end\00", align 1
@str = private unnamed_addr constant [23 x i8] c"Error: memory out! (1)\00", align 1
@str.3 = private unnamed_addr constant [23 x i8] c"Error: memory out! (2)\00", align 1

; Function Attrs: nounwind sspstrong uwtable
define dso_local noalias %struct.YyxStack* @CreateNewStack() local_unnamed_addr #0 {
  %1 = tail call noalias align 16 dereferenceable_or_null(16) i8* @malloc(i64 16) #11
  %2 = bitcast i8* %1 to %struct.YyxStack*
  %3 = icmp eq i8* %1, null
  br i1 %3, label %4, label %6

4:                                                ; preds = %0
  %5 = tail call i32 @puts(i8* nonnull dereferenceable(1) getelementptr inbounds ([23 x i8], [23 x i8]* @str, i64 0, i64 0))
  tail call void @exit(i32 -1) #12
  unreachable

6:                                                ; preds = %0
  %7 = getelementptr inbounds %struct.YyxStack, %struct.YyxStack* %2, i64 0, i32 0
  store i32 0, i32* %7, align 16, !tbaa !5
  %8 = getelementptr inbounds %struct.YyxStack, %struct.YyxStack* %2, i64 0, i32 1
  store %struct.YyxNode* null, %struct.YyxNode** %8, align 8, !tbaa !11
  ret %struct.YyxStack* %2
}

; Function Attrs: argmemonly mustprogress nofree nosync nounwind willreturn
declare void @llvm.lifetime.start.p0i8(i64 immarg, i8* nocapture) #1

; Function Attrs: inaccessiblememonly mustprogress nofree nounwind willreturn
declare noalias noundef align 16 i8* @malloc(i64 noundef) local_unnamed_addr #2

; Function Attrs: noreturn nounwind
declare void @exit(i32) local_unnamed_addr #3

; Function Attrs: argmemonly mustprogress nofree nosync nounwind willreturn
declare void @llvm.lifetime.end.p0i8(i64 immarg, i8* nocapture) #1

; Function Attrs: nounwind sspstrong uwtable
define dso_local %struct.YyxStack* @Push(%struct.YyxStack* returned %0, %struct.record* nocapture readonly %1) local_unnamed_addr #0 {
  %3 = tail call noalias align 16 dereferenceable_or_null(112) i8* @malloc(i64 112) #11
  %4 = bitcast i8* %3 to %struct.YyxNode*
  %5 = icmp eq i8* %3, null
  br i1 %5, label %6, label %8

6:                                                ; preds = %2
  %7 = tail call i32 @puts(i8* nonnull dereferenceable(1) getelementptr inbounds ([23 x i8], [23 x i8]* @str.3, i64 0, i64 0))
  tail call void @exit(i32 -1) #12
  unreachable

8:                                                ; preds = %2
  %9 = getelementptr inbounds %struct.YyxNode, %struct.YyxNode* %4, i64 0, i32 0, i32 0, i64 0
  %10 = getelementptr %struct.record, %struct.record* %1, i64 0, i32 0, i64 0
  tail call void @llvm.memcpy.p0i8.p0i8.i64(i8* noundef nonnull align 16 dereferenceable(100) %9, i8* noundef nonnull align 1 dereferenceable(100) %10, i64 100, i1 false), !tbaa.struct !12
  %11 = getelementptr inbounds %struct.YyxStack, %struct.YyxStack* %0, i64 0, i32 1
  %12 = load %struct.YyxNode*, %struct.YyxNode** %11, align 8, !tbaa !11
  %13 = getelementptr inbounds %struct.YyxNode, %struct.YyxNode* %4, i64 0, i32 1
  store %struct.YyxNode* %12, %struct.YyxNode** %13, align 8, !tbaa !14
  %14 = bitcast %struct.YyxNode** %11 to i8**
  store i8* %3, i8** %14, align 8, !tbaa !11
  %15 = getelementptr inbounds %struct.YyxStack, %struct.YyxStack* %0, i64 0, i32 0
  %16 = load i32, i32* %15, align 8, !tbaa !5
  %17 = add nsw i32 %16, 1
  store i32 %17, i32* %15, align 8, !tbaa !5
  ret %struct.YyxStack* %0
}

; Function Attrs: argmemonly mustprogress nofree nounwind willreturn
declare void @llvm.memcpy.p0i8.p0i8.i64(i8* noalias nocapture writeonly, i8* noalias nocapture readonly, i64, i1 immarg) #4

; Function Attrs: mustprogress nofree nosync nounwind sspstrong uwtable willreturn
define dso_local %struct.YyxStack* @Top(%struct.YyxStack* readonly returned %0, %struct.record* nocapture %1) local_unnamed_addr #5 {
  %3 = getelementptr inbounds %struct.YyxStack, %struct.YyxStack* %0, i64 0, i32 1
  %4 = load %struct.YyxNode*, %struct.YyxNode** %3, align 8, !tbaa !11
  %5 = getelementptr %struct.record, %struct.record* %1, i64 0, i32 0, i64 0
  %6 = getelementptr inbounds %struct.YyxNode, %struct.YyxNode* %4, i64 0, i32 0, i32 0, i64 0
  tail call void @llvm.memcpy.p0i8.p0i8.i64(i8* noundef nonnull align 1 dereferenceable(100) %5, i8* noundef nonnull align 8 dereferenceable(100) %6, i64 100, i1 false), !tbaa.struct !12
  ret %struct.YyxStack* %0
}

; Function Attrs: mustprogress nounwind sspstrong uwtable willreturn
define dso_local %struct.YyxStack* @Pop(%struct.YyxStack* returned %0) local_unnamed_addr #6 {
  %2 = getelementptr inbounds %struct.YyxStack, %struct.YyxStack* %0, i64 0, i32 1
  %3 = load %struct.YyxNode*, %struct.YyxNode** %2, align 8, !tbaa !11
  %4 = icmp eq %struct.YyxNode* %3, null
  br i1 %4, label %12, label %5

5:                                                ; preds = %1
  %6 = getelementptr inbounds %struct.YyxNode, %struct.YyxNode* %3, i64 0, i32 1
  %7 = load %struct.YyxNode*, %struct.YyxNode** %6, align 8, !tbaa !14
  store %struct.YyxNode* %7, %struct.YyxNode** %2, align 8, !tbaa !11
  %8 = getelementptr inbounds %struct.YyxStack, %struct.YyxStack* %0, i64 0, i32 0
  %9 = load i32, i32* %8, align 8, !tbaa !5
  %10 = add nsw i32 %9, -1
  store i32 %10, i32* %8, align 8, !tbaa !5
  %11 = getelementptr %struct.YyxNode, %struct.YyxNode* %3, i64 0, i32 0, i32 0, i64 0
  tail call void @free(i8* %11) #11
  br label %12

12:                                               ; preds = %1, %5
  ret %struct.YyxStack* %0
}

; Function Attrs: inaccessiblemem_or_argmemonly mustprogress nounwind willreturn
declare void @free(i8* nocapture noundef) local_unnamed_addr #7

; Function Attrs: nounwind sspstrong uwtable
define dso_local %struct.YyxStack* @ClearStack(%struct.YyxStack* returned %0) local_unnamed_addr #0 {
  %2 = getelementptr inbounds %struct.YyxStack, %struct.YyxStack* %0, i64 0, i32 1
  %3 = getelementptr inbounds %struct.YyxStack, %struct.YyxStack* %0, i64 0, i32 0
  %4 = load %struct.YyxNode*, %struct.YyxNode** %2, align 8, !tbaa !11
  %5 = icmp eq %struct.YyxNode* %4, null
  br i1 %5, label %15, label %6

6:                                                ; preds = %1, %6
  %7 = phi %struct.YyxNode* [ %13, %6 ], [ %4, %1 ]
  %8 = getelementptr inbounds %struct.YyxNode, %struct.YyxNode* %7, i64 0, i32 1
  %9 = load %struct.YyxNode*, %struct.YyxNode** %8, align 8, !tbaa !14
  store %struct.YyxNode* %9, %struct.YyxNode** %2, align 8, !tbaa !11
  %10 = load i32, i32* %3, align 8, !tbaa !5
  %11 = add nsw i32 %10, -1
  store i32 %11, i32* %3, align 8, !tbaa !5
  %12 = getelementptr %struct.YyxNode, %struct.YyxNode* %7, i64 0, i32 0, i32 0, i64 0
  tail call void @free(i8* %12) #11
  %13 = load %struct.YyxNode*, %struct.YyxNode** %2, align 8, !tbaa !11
  %14 = icmp eq %struct.YyxNode* %13, null
  br i1 %14, label %15, label %6, !llvm.loop !17

15:                                               ; preds = %6, %1
  ret %struct.YyxStack* %0
}

; Function Attrs: nounwind sspstrong uwtable
define dso_local i32 @main() local_unnamed_addr #0 {
  %1 = alloca %struct.record, align 1
  %2 = getelementptr inbounds %struct.record, %struct.record* %1, i64 0, i32 0, i64 0
  call void @llvm.lifetime.start.p0i8(i64 100, i8* nonnull %2) #11
  %3 = call i32 (i8*, ...) bitcast (i32 (...)* @gets to i32 (i8*, ...)*)(i8* nonnull %2) #11
  %4 = call i32 @bcmp(i8* noundef nonnull dereferenceable(4) %2, i8* noundef nonnull dereferenceable(4) getelementptr inbounds ([4 x i8], [4 x i8]* @.str.2, i64 0, i64 0), i64 4)
  %5 = icmp eq i32 %4, 0
  br i1 %5, label %32, label %6

6:                                                ; preds = %0, %14
  %7 = phi %struct.YyxNode* [ %10, %14 ], [ null, %0 ]
  %8 = phi i32 [ %17, %14 ], [ 0, %0 ]
  %9 = call noalias align 16 dereferenceable_or_null(112) i8* @malloc(i64 112) #11
  %10 = bitcast i8* %9 to %struct.YyxNode*
  %11 = icmp eq i8* %9, null
  br i1 %11, label %12, label %14

12:                                               ; preds = %6
  %13 = call i32 @puts(i8* nonnull dereferenceable(1) getelementptr inbounds ([23 x i8], [23 x i8]* @str.3, i64 0, i64 0)) #11
  call void @exit(i32 -1) #12
  unreachable

14:                                               ; preds = %6
  %15 = getelementptr inbounds %struct.YyxNode, %struct.YyxNode* %10, i64 0, i32 0, i32 0, i64 0
  call void @llvm.memcpy.p0i8.p0i8.i64(i8* noundef nonnull align 16 dereferenceable(100) %15, i8* noundef nonnull align 1 dereferenceable(100) %2, i64 100, i1 false) #11, !tbaa.struct !12
  %16 = getelementptr inbounds %struct.YyxNode, %struct.YyxNode* %10, i64 0, i32 1
  store %struct.YyxNode* %7, %struct.YyxNode** %16, align 8, !tbaa !14
  %17 = add nuw nsw i32 %8, 1
  %18 = call i32 (i8*, ...) bitcast (i32 (...)* @gets to i32 (i8*, ...)*)(i8* nonnull %2) #11
  %19 = call i32 @bcmp(i8* noundef nonnull dereferenceable(4) %2, i8* noundef nonnull dereferenceable(4) getelementptr inbounds ([4 x i8], [4 x i8]* @.str.2, i64 0, i64 0), i64 4)
  %20 = icmp eq i32 %19, 0
  br i1 %20, label %21, label %6, !llvm.loop !19

21:                                               ; preds = %14
  %22 = bitcast i8* %9 to %struct.YyxNode*
  br label %23

23:                                               ; preds = %21, %23
  %24 = phi i32 [ %29, %23 ], [ %17, %21 ]
  %25 = phi %struct.YyxNode* [ %28, %23 ], [ %22, %21 ]
  %26 = getelementptr %struct.YyxNode, %struct.YyxNode* %25, i64 0, i32 0, i32 0, i64 0
  call void @llvm.memcpy.p0i8.p0i8.i64(i8* noundef nonnull align 1 dereferenceable(100) %2, i8* noundef nonnull align 8 dereferenceable(100) %26, i64 100, i1 false) #11, !tbaa.struct !12
  %27 = getelementptr inbounds %struct.YyxNode, %struct.YyxNode* %25, i64 0, i32 1
  %28 = load %struct.YyxNode*, %struct.YyxNode** %27, align 8, !tbaa !14
  %29 = add nsw i32 %24, -1
  call void @free(i8* %26) #11
  %30 = call i32 @puts(i8* nonnull %2)
  %31 = icmp sgt i32 %24, 1
  br i1 %31, label %23, label %32, !llvm.loop !20

32:                                               ; preds = %23, %0
  call void @llvm.lifetime.end.p0i8(i64 100, i8* nonnull %2) #11
  ret i32 0
}

declare i32 @gets(...) local_unnamed_addr #8

; Function Attrs: nofree nounwind
declare noundef i32 @puts(i8* nocapture noundef readonly) local_unnamed_addr #9

; Function Attrs: argmemonly nofree nounwind readonly willreturn
declare i32 @bcmp(i8* nocapture, i8* nocapture, i64) local_unnamed_addr #10


!llvm.module.flags = !{!0, !1, !2, !3}
!llvm.ident = !{!4}

!0 = !{i32 1, !"wchar_size", i32 4}
!1 = !{i32 7, !"PIC Level", i32 2}
!2 = !{i32 7, !"PIE Level", i32 2}
!3 = !{i32 7, !"uwtable", i32 1}
!4 = !{!"clang version 13.0.0"}
!5 = !{!6, !7, i64 0}
!6 = !{!"YyxStack", !7, i64 0, !10, i64 8}
!7 = !{!"int", !8, i64 0}
!8 = !{!"omnipotent char", !9, i64 0}
!9 = !{!"Simple C/C++ TBAA"}
!10 = !{!"any pointer", !8, i64 0}
!11 = !{!6, !10, i64 8}
!12 = !{i64 0, i64 100, !13}
!13 = !{!8, !8, i64 0}
!14 = !{!15, !10, i64 104}
!15 = !{!"YyxNode", !16, i64 0, !10, i64 104}
!16 = !{!"record", !8, i64 0}
!17 = distinct !{!17, !18}
!18 = !{!"llvm.loop.mustprogress"}
!19 = distinct !{!19, !18}
!20 = distinct !{!20, !18}
